target datalayout = "e-m:e-p270:32:32-p271:32:32-p272:64:64-i64:64-i128:128-f80:128-n8:16:32:64-S128"
target triple = "x86_64-pc-linux-gnu"

%struct.step_location = type { ptr, ptr, i16, %struct.slurm_step_id_msg }
%struct.slurm_step_id_msg = type { i64, i32, i32, i32 }

@.str.110 = private unnamed_addr constant [24 x i8] c"Reconfig %ps failed: %m\00", align 1

; Function Attrs: nounwind uwtable
define internal i32 @_reconfig_stepd(ptr noundef %0, ptr noundef %1) #0 {
  %3 = alloca i32, align 4
  %4 = alloca ptr, align 8
  %5 = alloca ptr, align 8
  %6 = alloca ptr, align 8
  %7 = alloca i8, align 1
  %8 = alloca ptr, align 8
  %9 = alloca i32, align 4
  %10 = alloca i32, align 4
  store ptr %0, ptr %4, align 8
  store ptr %1, ptr %5, align 8
  call void @llvm.lifetime.start.p0(i64 8, ptr %6) #11
  %11 = load ptr, ptr %4, align 8
  store ptr %11, ptr %6, align 8
  call void @llvm.lifetime.start.p0(i64 1, ptr %7) #11
  %12 = load ptr, ptr %5, align 8
  %13 = load i8, ptr %12, align 1, !range !8, !noundef !9
  %14 = trunc i8 %13 to i1
  %15 = zext i1 %14 to i8
  store i8 %15, ptr %7, align 1
  call void @llvm.lifetime.start.p0(i64 8, ptr %8) #11
  store ptr null, ptr %8, align 8
  call void @llvm.lifetime.start.p0(i64 4, ptr %9) #11
  %16 = load ptr, ptr %6, align 8
  %17 = getelementptr inbounds nuw %struct.step_location, ptr %16, i32 0, i32 0
  %18 = load ptr, ptr %17, align 8
  %19 = load ptr, ptr %6, align 8
  %20 = getelementptr inbounds nuw %struct.step_location, ptr %19, i32 0, i32 1
  %21 = load ptr, ptr %20, align 8
  %22 = load ptr, ptr %6, align 8
  %23 = getelementptr inbounds nuw %struct.step_location, ptr %22, i32 0, i32 3
  %24 = load ptr, ptr %6, align 8
  %25 = getelementptr inbounds nuw %struct.step_location, ptr %24, i32 0, i32 2
  %26 = call i32 @stepd_connect(ptr noundef %18, ptr noundef %21, ptr noundef %23, ptr noundef %25)
  store i32 %26, ptr %9, align 4
  %27 = load i32, ptr %9, align 4
  %28 = icmp eq i32 %27, -1
  br i1 %28, label %29, label %30

29:                                               ; preds = %2
  store i32 0, ptr %3, align 4
  store i32 1, ptr %10, align 4
  br label %71

30:                                               ; preds = %2
  %31 = load i8, ptr %7, align 1, !range !8, !noundef !9
  %32 = trunc i8 %31 to i1
  br i1 %32, label %33, label %39

33:                                               ; preds = %30
  %34 = call ptr @init_buf(i32 noundef 1024)
  store ptr %34, ptr %8, align 8
  %35 = load ptr, ptr %8, align 8
  %36 = load ptr, ptr %6, align 8
  %37 = getelementptr inbounds nuw %struct.step_location, ptr %36, i32 0, i32 2
  %38 = load i16, ptr %37, align 8
  call void @pack_stepd_reconf(ptr noundef %35, i16 noundef zeroext %38)
  br label %39

39:                                               ; preds = %33, %30
  %40 = load i32, ptr %9, align 4
  %41 = load ptr, ptr %6, align 8
  %42 = getelementptr inbounds nuw %struct.step_location, ptr %41, i32 0, i32 2
  %43 = load i16, ptr %42, align 8
  %44 = load ptr, ptr %8, align 8
  %45 = call i32 @stepd_reconfig(i32 noundef %40, i16 noundef zeroext %43, ptr noundef %44)
  %46 = icmp ne i32 %45, 0
  br i1 %46, label %47, label %60

47:                                               ; preds = %39
  br label %48

48:                                               ; preds = %47
  br label %49

49:                                               ; preds = %48
  %50 = call i32 @get_log_level()
  %51 = icmp sge i32 %50, 5
  br i1 %51, label %52, label %55

52:                                               ; preds = %49
  %53 = load ptr, ptr %6, align 8
  %54 = getelementptr inbounds nuw %struct.step_location, ptr %53, i32 0, i32 3
  call void (i32, ptr, ...) @log_var(i32 noundef 5, ptr noundef @.str.110, ptr noundef %54)
  br label %55

55:                                               ; preds = %52, %49
  br label %56

56:                                               ; preds = %55
  br label %57

57:                                               ; preds = %56
  br label %58

58:                                               ; preds = %57
  br label %59

59:                                               ; preds = %58
  br label %60

60:                                               ; preds = %59, %39
  %61 = load i32, ptr %9, align 4
  %62 = call i32 @close(i32 noundef %61)
  br label %63

63:                                               ; preds = %60
  %64 = load ptr, ptr %8, align 8
  %65 = icmp ne ptr %64, null
  br i1 %65, label %66, label %68

66:                                               ; preds = %63
  %67 = load ptr, ptr %8, align 8
  call void @free_buf(ptr noundef %67)
  br label %68

68:                                               ; preds = %66, %63
  store ptr null, ptr %8, align 8
  br label %69

69:                                               ; preds = %68
  br label %70

70:                                               ; preds = %69
  store i32 0, ptr %3, align 4
  store i32 1, ptr %10, align 4
  br label %71

71:                                               ; preds = %70, %29
  call void @llvm.lifetime.end.p0(i64 4, ptr %9) #11
  call void @llvm.lifetime.end.p0(i64 8, ptr %8) #11
  call void @llvm.lifetime.end.p0(i64 1, ptr %7) #11
  call void @llvm.lifetime.end.p0(i64 8, ptr %6) #11
  %72 = load i32, ptr %3, align 4
  ret i32 %72
}