; Function Attrs: nounwind uwtable
define internal noundef i32 @_reconfig_stepd(ptr noundef %0, ptr noundef readonly captures(none) %1) #0 {
  %3 = load i8, ptr %1, align 1, !range !11, !noundef !12
  %4 = load ptr, ptr %0, align 8
  %5 = getelementptr inbounds nuw i8, ptr %0, i64 8
  %6 = load ptr, ptr %5, align 8
  %7 = getelementptr inbounds nuw i8, ptr %0, i64 24
  %8 = getelementptr inbounds nuw i8, ptr %0, i64 16
  %9 = tail call i32 @stepd_connect(ptr noundef %4, ptr noundef %6, ptr noundef nonnull %7, ptr noundef nonnull %8) #18
  %10 = icmp eq i32 %9, -1
  br i1 %10, label %26, label %11

11:                                               ; preds = %2
  %12 = trunc nuw i8 %3 to i1
  br i1 %12, label %13, label %16

13:                                               ; preds = %11
  %14 = tail call ptr @init_buf(i32 noundef 1024) #18
  %15 = load i16, ptr %8, align 8
  tail call void @pack_stepd_reconf(ptr noundef %14, i16 noundef zeroext %15) #18
  br label %16

16:                                               ; preds = %13, %11
  %.017 = phi ptr [ %14, %13 ], [ null, %11 ]
  %17 = load i16, ptr %8, align 8
  %18 = tail call i32 @stepd_reconfig(i32 noundef %9, i16 noundef zeroext %17, ptr noundef %.017) #18
  %.not = icmp eq i32 %18, 0
  br i1 %.not, label %23, label %19

19:                                               ; preds = %16
  %20 = tail call i32 @get_log_level() #18
  %21 = icmp sgt i32 %20, 4
  br i1 %21, label %22, label %23

22:                                               ; preds = %19
  tail call void (i32, ptr, ...) @log_var(i32 noundef 5, ptr noundef nonnull @.str.110, ptr noundef nonnull %7) #18
  br label %23

23:                                               ; preds = %19, %22, %16
  %24 = tail call i32 @close(i32 noundef %9) #18
  %.not18 = icmp eq ptr %.017, null
  br i1 %.not18, label %26, label %25

25:                                               ; preds = %23
  tail call void @free_buf(ptr noundef nonnull %.017) #18
  br label %26

26:                                               ; preds = %23, %25, %2
  ret i32 0
}